target datalayout = "e-m:e-p270:32:32-p271:32:32-p272:64:64-i64:64-i128:128-f80:128-n8:16:32:64-S128"
target triple = "x86_64-pc-linux-gnu"

%struct.AVFormatContext = type { ptr, ptr, ptr, ptr, ptr, i32, i32, ptr, i32, ptr, i32, ptr, ptr, i64, i64, i64, i32, i32, i32, i64, i64, ptr, i32, i32, ptr, i32, i32, i32, i32, ptr, i64, i32, i32, %struct.AVIOInterruptCB, i32, i32, i32, i32, i64, i32, i32, i32, i32, i32, i32, i32, i32, i32, i32, i32, i32, i64, i32, i32, i32, i32, i32, ptr, ptr, ptr, ptr, i32, ptr, ptr, ptr, ptr, i32, ptr, ptr, i64, ptr, ptr, ptr, i64 }
%struct.AVIOInterruptCB = type { ptr, ptr }
%struct.HDSContext = type { ptr, i32, i32, i32, i32, ptr, i32 }
%struct.OutputStream = type { i32, i32, ptr, i32, [32768 x i8], [1024 x i8], i64, i64, ptr, i32, i32, i32, i32, ptr, i32, i32, ptr, i32, [2 x ptr], [2 x i32], i32 }

; Function Attrs: nounwind uwtable
define internal void @hds_free(ptr noundef %0) #0 {
  %2 = alloca ptr, align 8
  %3 = alloca ptr, align 8
  %4 = alloca i32, align 4
  %5 = alloca i32, align 4
  %6 = alloca i32, align 4
  %7 = alloca ptr, align 8
  store ptr %0, ptr %2, align 8, !tbaa !4
  call void @llvm.lifetime.start.p0(i64 8, ptr %3) #9
  %8 = load ptr, ptr %2, align 8, !tbaa !4
  %9 = getelementptr inbounds nuw %struct.AVFormatContext, ptr %8, i32 0, i32 3
  %10 = load ptr, ptr %9, align 8, !tbaa !9
  store ptr %10, ptr %3, align 8, !tbaa !26
  call void @llvm.lifetime.start.p0(i64 4, ptr %4) #9
  call void @llvm.lifetime.start.p0(i64 4, ptr %5) #9
  %11 = load ptr, ptr %3, align 8, !tbaa !26
  %12 = getelementptr inbounds nuw %struct.HDSContext, ptr %11, i32 0, i32 5
  %13 = load ptr, ptr %12, align 8, !tbaa !32
  %14 = icmp ne ptr %13, null
  br i1 %14, label %16, label %15

15:                                               ; preds = %1
  store i32 1, ptr %6, align 4
  br label %111

16:                                               ; preds = %1
  store i32 0, ptr %4, align 4, !tbaa !28
  br label %17

17:                                               ; preds = %105, %16
  %18 = load i32, ptr %4, align 4, !tbaa !28
  %19 = load ptr, ptr %2, align 8, !tbaa !4
  %20 = getelementptr inbounds nuw %struct.AVFormatContext, ptr %19, i32 0, i32 6
  %21 = load i32, ptr %20, align 4, !tbaa !31
  %22 = icmp ult i32 %18, %21
  br i1 %22, label %23, label %108

23:                                               ; preds = %17
  call void @llvm.lifetime.start.p0(i64 8, ptr %7) #9
  %24 = load ptr, ptr %3, align 8, !tbaa !26
  %25 = getelementptr inbounds nuw %struct.HDSContext, ptr %24, i32 0, i32 5
  %26 = load ptr, ptr %25, align 8, !tbaa !32
  %27 = load i32, ptr %4, align 4, !tbaa !28
  %28 = sext i32 %27 to i64
  %29 = getelementptr inbounds %struct.OutputStream, ptr %26, i64 %28
  store ptr %29, ptr %7, align 8, !tbaa !36
  %30 = load ptr, ptr %7, align 8, !tbaa !36
  %31 = getelementptr inbounds nuw %struct.OutputStream, ptr %30, i32 0, i32 8
  %32 = load ptr, ptr %31, align 8, !tbaa !101
  %33 = icmp ne ptr %32, null
  br i1 %33, label %34, label %39

34:                                               ; preds = %23
  %35 = load ptr, ptr %2, align 8, !tbaa !4
  %36 = load ptr, ptr %7, align 8, !tbaa !36
  %37 = getelementptr inbounds nuw %struct.OutputStream, ptr %36, i32 0, i32 8
  %38 = call i32 @ff_format_io_close(ptr noundef %35, ptr noundef %37)
  br label %39

39:                                               ; preds = %34, %23
  %40 = load ptr, ptr %7, align 8, !tbaa !36
  %41 = getelementptr inbounds nuw %struct.OutputStream, ptr %40, i32 0, i32 2
  %42 = load ptr, ptr %41, align 8, !tbaa !56
  %43 = icmp ne ptr %42, null
  br i1 %43, label %44, label %54

44:                                               ; preds = %39
  %45 = load ptr, ptr %7, align 8, !tbaa !36
  %46 = getelementptr inbounds nuw %struct.OutputStream, ptr %45, i32 0, i32 3
  %47 = load i32, ptr %46, align 8, !tbaa !68
  %48 = icmp ne i32 %47, 0
  br i1 %48, label %49, label %54

49:                                               ; preds = %44
  %50 = load ptr, ptr %7, align 8, !tbaa !36
  %51 = getelementptr inbounds nuw %struct.OutputStream, ptr %50, i32 0, i32 2
  %52 = load ptr, ptr %51, align 8, !tbaa !56
  %53 = call i32 @av_write_trailer(ptr noundef %52)
  br label %54

54:                                               ; preds = %49, %44, %39
  %55 = load ptr, ptr %7, align 8, !tbaa !36
  %56 = getelementptr inbounds nuw %struct.OutputStream, ptr %55, i32 0, i32 2
  %57 = load ptr, ptr %56, align 8, !tbaa !56
  %58 = icmp ne ptr %57, null
  br i1 %58, label %59, label %64

59:                                               ; preds = %54
  %60 = load ptr, ptr %7, align 8, !tbaa !36
  %61 = getelementptr inbounds nuw %struct.OutputStream, ptr %60, i32 0, i32 2
  %62 = load ptr, ptr %61, align 8, !tbaa !56
  %63 = getelementptr inbounds nuw %struct.AVFormatContext, ptr %62, i32 0, i32 4
  call void @avio_context_free(ptr noundef %63)
  br label %64

64:                                               ; preds = %59, %54
  %65 = load ptr, ptr %7, align 8, !tbaa !36
  %66 = getelementptr inbounds nuw %struct.OutputStream, ptr %65, i32 0, i32 2
  %67 = load ptr, ptr %66, align 8, !tbaa !56
  call void @avformat_free_context(ptr noundef %67)
  %68 = load ptr, ptr %7, align 8, !tbaa !36
  %69 = getelementptr inbounds nuw %struct.OutputStream, ptr %68, i32 0, i32 16
  call void @av_freep(ptr noundef %69)
  store i32 0, ptr %5, align 4, !tbaa !28
  br label %70

70:                                               ; preds = %82, %64
  %71 = load i32, ptr %5, align 4, !tbaa !28
  %72 = load ptr, ptr %7, align 8, !tbaa !36
  %73 = getelementptr inbounds nuw %struct.OutputStream, ptr %72, i32 0, i32 20
  %74 = load i32, ptr %73, align 8, !tbaa !102
  %75 = icmp slt i32 %71, %74
  br i1 %75, label %76, label %85

76:                                               ; preds = %70
  %77 = load ptr, ptr %7, align 8, !tbaa !36
  %78 = getelementptr inbounds nuw %struct.OutputStream, ptr %77, i32 0, i32 18
  %79 = load i32, ptr %5, align 4, !tbaa !28
  %80 = sext i32 %79 to i64
  %81 = getelementptr inbounds [2 x ptr], ptr %78, i64 0, i64 %80
  call void @av_freep(ptr noundef %81)
  br label %82

82:                                               ; preds = %76
  %83 = load i32, ptr %5, align 4, !tbaa !28
  %84 = add nsw i32 %83, 1
  store i32 %84, ptr %5, align 4, !tbaa !28
  br label %70, !llvm.loop !103

85:                                               ; preds = %70
  store i32 0, ptr %5, align 4, !tbaa !28
  br label %86

86:                                               ; preds = %99, %85
  %87 = load i32, ptr %5, align 4, !tbaa !28
  %88 = load ptr, ptr %7, align 8, !tbaa !36
  %89 = getelementptr inbounds nuw %struct.OutputStream, ptr %88, i32 0, i32 10
  %90 = load i32, ptr %89, align 4, !tbaa !104
  %91 = icmp slt i32 %87, %90
  br i1 %91, label %92, label %102

92:                                               ; preds = %86
  %93 = load ptr, ptr %7, align 8, !tbaa !36
  %94 = getelementptr inbounds nuw %struct.OutputStream, ptr %93, i32 0, i32 13
  %95 = load ptr, ptr %94, align 8, !tbaa !105
  %96 = load i32, ptr %5, align 4, !tbaa !28
  %97 = sext i32 %96 to i64
  %98 = getelementptr inbounds ptr, ptr %95, i64 %97
  call void @av_freep(ptr noundef %98)
  br label %99

99:                                               ; preds = %92
  %100 = load i32, ptr %5, align 4, !tbaa !28
  %101 = add nsw i32 %100, 1
  store i32 %101, ptr %5, align 4, !tbaa !28
  br label %86, !llvm.loop !106

102:                                              ; preds = %86
  %103 = load ptr, ptr %7, align 8, !tbaa !36
  %104 = getelementptr inbounds nuw %struct.OutputStream, ptr %103, i32 0, i32 13
  call void @av_freep(ptr noundef %104)
  call void @llvm.lifetime.end.p0(i64 8, ptr %7) #9
  br label %105

105:                                              ; preds = %102
  %106 = load i32, ptr %4, align 4, !tbaa !28
  %107 = add nsw i32 %106, 1
  store i32 %107, ptr %4, align 4, !tbaa !28
  br label %17, !llvm.loop !107

108:                                              ; preds = %17
  %109 = load ptr, ptr %3, align 8, !tbaa !26
  %110 = getelementptr inbounds nuw %struct.HDSContext, ptr %109, i32 0, i32 5
  call void @av_freep(ptr noundef %110)
  store i32 0, ptr %6, align 4
  br label %111

111:                                              ; preds = %108, %15
  call void @llvm.lifetime.end.p0(i64 4, ptr %5) #9
  call void @llvm.lifetime.end.p0(i64 4, ptr %4) #9
  call void @llvm.lifetime.end.p0(i64 8, ptr %3) #9
  %112 = load i32, ptr %6, align 4
  switch i32 %112, label %114 [
    i32 0, label %113
    i32 1, label %113
  ]

113:                                              ; preds = %111, %111
  ret void

114:                                              ; preds = %111
  unreachable
}