; Function Attrs: nounwind uwtable
define internal void @hds_free(ptr noundef %0) #0 {
  %2 = getelementptr inbounds nuw i8, ptr %0, i64 24
  %3 = load ptr, ptr %2, align 8, !tbaa !4
  %4 = getelementptr inbounds nuw i8, ptr %3, i64 24
  %5 = load ptr, ptr %4, align 8, !tbaa !27
  %.not = icmp eq ptr %5, null
  br i1 %.not, label %48, label %.preheader36

.preheader36:                                     ; preds = %1
  %6 = getelementptr inbounds nuw i8, ptr %0, i64 44
  %7 = load i32, ptr %6, align 4, !tbaa !26
  %.not43 = icmp eq i32 %7, 0
  br i1 %.not43, label %._crit_edge42, label %.lr.ph41

.lr.ph41:                                         ; preds = %.preheader36, %._crit_edge
  %indvars.iv48 = phi i64 [ %indvars.iv.next49, %._crit_edge ], [ 0, %.preheader36 ]
  %8 = load ptr, ptr %4, align 8, !tbaa !27
  %9 = getelementptr inbounds nuw %struct.OutputStream, ptr %8, i64 %indvars.iv48
  %10 = getelementptr inbounds nuw i8, ptr %9, i64 33832
  %11 = load ptr, ptr %10, align 8, !tbaa !65
  %.not31 = icmp eq ptr %11, null
  br i1 %.not31, label %14, label %12

12:                                               ; preds = %.lr.ph41
  %13 = tail call i32 @ff_format_io_close(ptr noundef nonnull %0, ptr noundef nonnull %10) #8
  br label %14

14:                                               ; preds = %12, %.lr.ph41
  %15 = getelementptr inbounds nuw i8, ptr %9, i64 8
  %16 = load ptr, ptr %15, align 8, !tbaa !51
  %.not32 = icmp eq ptr %16, null
  br i1 %.not32, label %.thread, label %17

17:                                               ; preds = %14
  %18 = getelementptr inbounds nuw i8, ptr %9, i64 16
  %19 = load i32, ptr %18, align 8, !tbaa !62
  %.not33 = icmp eq i32 %19, 0
  br i1 %.not33, label %.thread52, label %20

20:                                               ; preds = %17
  %21 = tail call i32 @av_write_trailer(ptr noundef nonnull %16) #8
  %.pr.pre = load ptr, ptr %15, align 8, !tbaa !51
  %.not34 = icmp eq ptr %.pr.pre, null
  br i1 %.not34, label %.thread, label %.thread52

.thread52:                                        ; preds = %17, %20
  %.pr55 = phi ptr [ %.pr.pre, %20 ], [ %16, %17 ]
  %22 = getelementptr inbounds nuw i8, ptr %.pr55, i64 32
  tail call void @avio_context_free(ptr noundef nonnull %22) #8
  %.pre = load ptr, ptr %15, align 8, !tbaa !51
  br label %.thread

.thread:                                          ; preds = %14, %.thread52, %20
  %23 = phi ptr [ null, %14 ], [ %.pre, %.thread52 ], [ null, %20 ]
  tail call void @avformat_free_context(ptr noundef %23) #8
  %24 = getelementptr inbounds nuw i8, ptr %9, i64 33872
  tail call void @av_freep(ptr noundef nonnull %24) #8
  %25 = getelementptr inbounds nuw i8, ptr %9, i64 33912
  %26 = load i32, ptr %25, align 8, !tbaa !66
  %27 = icmp sgt i32 %26, 0
  br i1 %27, label %.lr.ph, label %.preheader

.lr.ph:                                           ; preds = %.thread
  %28 = getelementptr inbounds nuw i8, ptr %9, i64 33888
  br label %33

.preheader:                                       ; preds = %33, %.thread
  %29 = getelementptr inbounds nuw i8, ptr %9, i64 33844
  %30 = load i32, ptr %29, align 4, !tbaa !94
  %31 = icmp sgt i32 %30, 0
  br i1 %31, label %.lr.ph39, label %._crit_edge

.lr.ph39:                                         ; preds = %.preheader
  %32 = getelementptr inbounds nuw i8, ptr %9, i64 33856
  br label %38

33:                                               ; preds = %.lr.ph, %33
  %indvars.iv = phi i64 [ 0, %.lr.ph ], [ %indvars.iv.next, %33 ]
  %34 = getelementptr inbounds nuw [2 x ptr], ptr %28, i64 0, i64 %indvars.iv
  tail call void @av_freep(ptr noundef nonnull %34) #8
  %indvars.iv.next = add nuw nsw i64 %indvars.iv, 1
  %35 = load i32, ptr %25, align 8, !tbaa !66
  %36 = sext i32 %35 to i64
  %37 = icmp slt i64 %indvars.iv.next, %36
  br i1 %37, label %33, label %.preheader, !llvm.loop !95

38:                                               ; preds = %.lr.ph39, %38
  %indvars.iv45 = phi i64 [ 0, %.lr.ph39 ], [ %indvars.iv.next46, %38 ]
  %39 = load ptr, ptr %32, align 8, !tbaa !96
  %40 = getelementptr inbounds nuw ptr, ptr %39, i64 %indvars.iv45
  tail call void @av_freep(ptr noundef %40) #8
  %indvars.iv.next46 = add nuw nsw i64 %indvars.iv45, 1
  %41 = load i32, ptr %29, align 4, !tbaa !94
  %42 = sext i32 %41 to i64
  %43 = icmp slt i64 %indvars.iv.next46, %42
  br i1 %43, label %38, label %._crit_edge, !llvm.loop !97

._crit_edge:                                      ; preds = %38, %.preheader
  %44 = getelementptr inbounds nuw i8, ptr %9, i64 33856
  tail call void @av_freep(ptr noundef nonnull %44) #8
  %indvars.iv.next49 = add nuw nsw i64 %indvars.iv48, 1
  %45 = load i32, ptr %6, align 4, !tbaa !26
  %46 = zext i32 %45 to i64
  %47 = icmp samesign ult i64 %indvars.iv.next49, %46
  br i1 %47, label %.lr.ph41, label %._crit_edge42, !llvm.loop !98

._crit_edge42:                                    ; preds = %._crit_edge, %.preheader36
  tail call void @av_freep(ptr noundef nonnull %4) #8
  br label %48

48:                                               ; preds = %1, %._crit_edge42
  ret void
}